; ModuleID = '10/1287.c'
source_filename = "10/1287.c"
target datalayout = "e-m:e-p270:32:32-p271:32:32-p272:64:64-i64:64-f80:128-n8:16:32:64-S128"
target triple = "x86_64-pc-linux-gnu"

@.str = private unnamed_addr constant [3 x i8] c"%d\00", align 1

; Function Attrs: noinline nounwind uwtable
define dso_local void @main() #0 {
  %1 = alloca i32, align 4
  %2 = alloca i32, align 4
  %3 = alloca i32, align 4
  %4 = alloca i32, align 4
  %5 = alloca i32*, align 8
  %6 = alloca i32**, align 8
  %7 = call i32 (i8*, ...) @__isoc99_scanf(i8* getelementptr inbounds ([3 x i8], [3 x i8]* @.str, i64 0, i64 0), i32* %1)
  %8 = load i32, i32* %1, align 4
  %9 = sext i32 %8 to i64
  %10 = mul i64 %9, 4
  %11 = call noalias i8* @malloc(i64 %10) #3
  %12 = bitcast i8* %11 to i32*
  store i32* %12, i32** %5, align 8
  %13 = load i32, i32* %1, align 4
  %14 = sext i32 %13 to i64
  %15 = mul i64 %14, 8
  %16 = call noalias i8* @malloc(i64 %15) #3
  %17 = bitcast i8* %16 to i32**
  store i32** %17, i32*** %6, align 8
  store i32 0, i32* %2, align 4
  br label %18

18:                                               ; preds = %33, %0
  %19 = load i32, i32* %2, align 4
  %20 = load i32, i32* %1, align 4
  %21 = icmp slt i32 %19, %20
  br i1 %21, label %22, label %36

22:                                               ; preds = %18
  %23 = load i32, i32* %2, align 4
  %24 = add nsw i32 %23, 1
  %25 = sext i32 %24 to i64
  %26 = mul i64 %25, 4
  %27 = call noalias i8* @malloc(i64 %26) #3
  %28 = bitcast i8* %27 to i32*
  %29 = load i32**, i32*** %6, align 8
  %30 = load i32, i32* %2, align 4
  %31 = sext i32 %30 to i64
  %32 = getelementptr inbounds i32*, i32** %29, i64 %31
  store i32* %28, i32** %32, align 8
  br label %33

33:                                               ; preds = %22
  %34 = load i32, i32* %2, align 4
  %35 = add nsw i32 %34, 1
  store i32 %35, i32* %2, align 4
  br label %18

36:                                               ; preds = %18
  store i32 0, i32* %2, align 4
  br label %37

37:                                               ; preds = %47, %36
  %38 = load i32, i32* %2, align 4
  %39 = load i32, i32* %1, align 4
  %40 = icmp slt i32 %38, %39
  br i1 %40, label %41, label %50

41:                                               ; preds = %37
  %42 = load i32*, i32** %5, align 8
  %43 = load i32, i32* %2, align 4
  %44 = sext i32 %43 to i64
  %45 = getelementptr inbounds i32, i32* %42, i64 %44
  %46 = call i32 (i8*, ...) @__isoc99_scanf(i8* getelementptr inbounds ([3 x i8], [3 x i8]* @.str, i64 0, i64 0), i32* %45)
  br label %47

47:                                               ; preds = %41
  %48 = load i32, i32* %2, align 4
  %49 = add nsw i32 %48, 1
  store i32 %49, i32* %2, align 4
  br label %37

50:                                               ; preds = %37
  store i32 0, i32* %2, align 4
  br label %51

51:                                               ; preds = %89, %50
  %52 = load i32, i32* %2, align 4
  %53 = load i32, i32* %1, align 4
  %54 = icmp slt i32 %52, %53
  br i1 %54, label %55, label %92

55:                                               ; preds = %51
  %56 = load i32*, i32** %5, align 8
  %57 = load i32, i32* %2, align 4
  %58 = sext i32 %57 to i64
  %59 = getelementptr inbounds i32, i32* %56, i64 %58
  %60 = load i32, i32* %59, align 4
  %61 = load i32*, i32** %5, align 8
  %62 = load i32, i32* %1, align 4
  %63 = sub nsw i32 %62, 1
  %64 = sext i32 %63 to i64
  %65 = getelementptr inbounds i32, i32* %61, i64 %64
  %66 = load i32, i32* %65, align 4
  %67 = icmp sge i32 %60, %66
  br i1 %67, label %68, label %78

68:                                               ; preds = %55
  %69 = load i32**, i32*** %6, align 8
  %70 = load i32, i32* %1, align 4
  %71 = sub nsw i32 %70, 1
  %72 = sext i32 %71 to i64
  %73 = getelementptr inbounds i32*, i32** %69, i64 %72
  %74 = load i32*, i32** %73, align 8
  %75 = load i32, i32* %2, align 4
  %76 = sext i32 %75 to i64
  %77 = getelementptr inbounds i32, i32* %74, i64 %76
  store i32 1, i32* %77, align 4
  br label %88

78:                                               ; preds = %55
  %79 = load i32**, i32*** %6, align 8
  %80 = load i32, i32* %1, align 4
  %81 = sub nsw i32 %80, 1
  %82 = sext i32 %81 to i64
  %83 = getelementptr inbounds i32*, i32** %79, i64 %82
  %84 = load i32*, i32** %83, align 8
  %85 = load i32, i32* %2, align 4
  %86 = sext i32 %85 to i64
  %87 = getelementptr inbounds i32, i32* %84, i64 %86
  store i32 0, i32* %87, align 4
  br label %88

88:                                               ; preds = %78, %68
  br label %89

89:                                               ; preds = %88
  %90 = load i32, i32* %2, align 4
  %91 = add nsw i32 %90, 1
  store i32 %91, i32* %2, align 4
  br label %51

92:                                               ; preds = %51
  %93 = load i32, i32* %1, align 4
  %94 = sub nsw i32 %93, 2
  store i32 %94, i32* %3, align 4
  br label %95

95:                                               ; preds = %179, %92
  %96 = load i32, i32* %3, align 4
  %97 = icmp sge i32 %96, 0
  br i1 %97, label %98, label %182

98:                                               ; preds = %95
  store i32 0, i32* %2, align 4
  br label %99

99:                                               ; preds = %175, %98
  %100 = load i32, i32* %2, align 4
  %101 = load i32, i32* %3, align 4
  %102 = icmp sle i32 %100, %101
  br i1 %102, label %103, label %178

103:                                              ; preds = %99
  %104 = load i32*, i32** %5, align 8
  %105 = load i32, i32* %3, align 4
  %106 = sext i32 %105 to i64
  %107 = getelementptr inbounds i32, i32* %104, i64 %106
  %108 = load i32, i32* %107, align 4
  %109 = load i32*, i32** %5, align 8
  %110 = load i32, i32* %2, align 4
  %111 = sext i32 %110 to i64
  %112 = getelementptr inbounds i32, i32* %109, i64 %111
  %113 = load i32, i32* %112, align 4
  %114 = icmp sgt i32 %108, %113
  br i1 %114, label %115, label %128

115:                                              ; preds = %103
  store i32 0, i32* %4, align 4
  %116 = load i32**, i32*** %6, align 8
  %117 = load i32, i32* %3, align 4
  %118 = add nsw i32 %117, 1
  %119 = sext i32 %118 to i64
  %120 = getelementptr inbounds i32*, i32** %116, i64 %119
  %121 = load i32*, i32** %120, align 8
  %122 = load i32, i32* %2, align 4
  %123 = sext i32 %122 to i64
  %124 = getelementptr inbounds i32, i32* %121, i64 %123
  %125 = load i32, i32* %124, align 4
  %126 = load i32, i32* %4, align 4
  %127 = add nsw i32 %126, %125
  store i32 %127, i32* %4, align 4
  br label %141

128:                                              ; preds = %103
  store i32 1, i32* %4, align 4
  %129 = load i32**, i32*** %6, align 8
  %130 = load i32, i32* %3, align 4
  %131 = add nsw i32 %130, 1
  %132 = sext i32 %131 to i64
  %133 = getelementptr inbounds i32*, i32** %129, i64 %132
  %134 = load i32*, i32** %133, align 8
  %135 = load i32, i32* %3, align 4
  %136 = sext i32 %135 to i64
  %137 = getelementptr inbounds i32, i32* %134, i64 %136
  %138 = load i32, i32* %137, align 4
  %139 = load i32, i32* %4, align 4
  %140 = add nsw i32 %139, %138
  store i32 %140, i32* %4, align 4
  br label %141

141:                                              ; preds = %128, %115
  %142 = load i32, i32* %4, align 4
  %143 = load i32**, i32*** %6, align 8
  %144 = load i32, i32* %3, align 4
  %145 = add nsw i32 %144, 1
  %146 = sext i32 %145 to i64
  %147 = getelementptr inbounds i32*, i32** %143, i64 %146
  %148 = load i32*, i32** %147, align 8
  %149 = load i32, i32* %2, align 4
  %150 = sext i32 %149 to i64
  %151 = getelementptr inbounds i32, i32* %148, i64 %150
  %152 = load i32, i32* %151, align 4
  %153 = icmp slt i32 %142, %152
  br i1 %153, label %154, label %165

154:                                              ; preds = %141
  %155 = load i32**, i32*** %6, align 8
  %156 = load i32, i32* %3, align 4
  %157 = add nsw i32 %156, 1
  %158 = sext i32 %157 to i64
  %159 = getelementptr inbounds i32*, i32** %155, i64 %158
  %160 = load i32*, i32** %159, align 8
  %161 = load i32, i32* %2, align 4
  %162 = sext i32 %161 to i64
  %163 = getelementptr inbounds i32, i32* %160, i64 %162
  %164 = load i32, i32* %163, align 4
  store i32 %164, i32* %4, align 4
  br label %165

165:                                              ; preds = %154, %141
  %166 = load i32, i32* %4, align 4
  %167 = load i32**, i32*** %6, align 8
  %168 = load i32, i32* %3, align 4
  %169 = sext i32 %168 to i64
  %170 = getelementptr inbounds i32*, i32** %167, i64 %169
  %171 = load i32*, i32** %170, align 8
  %172 = load i32, i32* %2, align 4
  %173 = sext i32 %172 to i64
  %174 = getelementptr inbounds i32, i32* %171, i64 %173
  store i32 %166, i32* %174, align 4
  br label %175

175:                                              ; preds = %165
  %176 = load i32, i32* %2, align 4
  %177 = add nsw i32 %176, 1
  store i32 %177, i32* %2, align 4
  br label %99

178:                                              ; preds = %99
  br label %179

179:                                              ; preds = %178
  %180 = load i32, i32* %3, align 4
  %181 = add nsw i32 %180, -1
  store i32 %181, i32* %3, align 4
  br label %95

182:                                              ; preds = %95
  store i32 0, i32* %4, align 4
  store i32 0, i32* %2, align 4
  br label %183

183:                                              ; preds = %210, %182
  %184 = load i32, i32* %2, align 4
  %185 = load i32, i32* %1, align 4
  %186 = icmp slt i32 %184, %185
  br i1 %186, label %187, label %213

187:                                              ; preds = %183
  %188 = load i32**, i32*** %6, align 8
  %189 = load i32, i32* %2, align 4
  %190 = sext i32 %189 to i64
  %191 = getelementptr inbounds i32*, i32** %188, i64 %190
  %192 = load i32*, i32** %191, align 8
  %193 = load i32, i32* %2, align 4
  %194 = sext i32 %193 to i64
  %195 = getelementptr inbounds i32, i32* %192, i64 %194
  %196 = load i32, i32* %195, align 4
  %197 = load i32, i32* %4, align 4
  %198 = icmp sgt i32 %196, %197
  br i1 %198, label %199, label %209

199:                                              ; preds = %187
  %200 = load i32**, i32*** %6, align 8
  %201 = load i32, i32* %2, align 4
  %202 = sext i32 %201 to i64
  %203 = getelementptr inbounds i32*, i32** %200, i64 %202
  %204 = load i32*, i32** %203, align 8
  %205 = load i32, i32* %2, align 4
  %206 = sext i32 %205 to i64
  %207 = getelementptr inbounds i32, i32* %204, i64 %206
  %208 = load i32, i32* %207, align 4
  store i32 %208, i32* %4, align 4
  br label %209

209:                                              ; preds = %199, %187
  br label %210

210:                                              ; preds = %209
  %211 = load i32, i32* %2, align 4
  %212 = add nsw i32 %211, 1
  store i32 %212, i32* %2, align 4
  br label %183

213:                                              ; preds = %183
  %214 = load i32, i32* %4, align 4
  %215 = call i32 (i8*, ...) @printf(i8* getelementptr inbounds ([3 x i8], [3 x i8]* @.str, i64 0, i64 0), i32 %214)
  ret void
}

declare dso_local i32 @__isoc99_scanf(i8*, ...) #1

; Function Attrs: nounwind
declare dso_local noalias i8* @malloc(i64) #2

declare dso_local i32 @printf(i8*, ...) #1


!llvm.module.flags = !{!0}
!llvm.ident = !{!1}

!0 = !{i32 1, !"wchar_size", i32 4}
!1 = !{!"clang version 10.0.0-4ubuntu1 "}
